; Function Attrs: mustprogress uwtable
define hidden noundef ptr @_ZNK7datalog14check_relation5cloneEv(ptr noundef nonnull align 8 dereferenceable(64) %0) unnamed_addr #3 align 2 personality ptr @__gxx_personality_v0 {
  %2 = alloca %class.obj_ref, align 8
  %3 = alloca %class.obj_ref, align 8
  %4 = getelementptr inbounds nuw i8, ptr %0, i64 8
  %5 = load ptr, ptr %4, align 8, !tbaa !39
  %6 = getelementptr inbounds nuw i8, ptr %0, i64 16
  %7 = load ptr, ptr %5, align 8, !tbaa !3
  %8 = getelementptr inbounds nuw i8, ptr %7, i64 40
  %9 = load ptr, ptr %8, align 8
  %10 = tail call noundef ptr %9(ptr noundef nonnull align 8 dereferenceable(56) %5, ptr noundef nonnull align 8 dereferenceable(8) %6)
  %.not.i = icmp eq ptr %10, null
  br i1 %.not.i, label %_ZN7datalog21check_relation_plugin3getEPNS_13relation_baseE.exit, label %11

11:                                               ; preds = %1
  %12 = tail call ptr @__dynamic_cast(ptr nonnull readonly %10, ptr nonnull @_ZTIN7datalog13relation_baseE, ptr nonnull @_ZTIN7datalog14check_relationE, i64 0) #24
  br label %_ZN7datalog21check_relation_plugin3getEPNS_13relation_baseE.exit

_ZN7datalog21check_relation_plugin3getEPNS_13relation_baseE.exit: ; preds = %1, %11
  %13 = phi ptr [ %12, %11 ], [ null, %1 ]
  %14 = getelementptr inbounds nuw i8, ptr %13, i64 40
  %15 = load ptr, ptr %14, align 8, !tbaa !29
  %16 = load ptr, ptr %15, align 8, !tbaa !3
  %17 = getelementptr inbounds nuw i8, ptr %16, i64 16
  %18 = load ptr, ptr %17, align 8
  tail call void %18(ptr noundef nonnull align 8 dereferenceable(28) %15)
  %19 = getelementptr inbounds nuw i8, ptr %0, i64 40
  %20 = load ptr, ptr %19, align 8, !tbaa !29
  %21 = load ptr, ptr %20, align 8, !tbaa !3
  %22 = getelementptr inbounds nuw i8, ptr %21, i64 72
  %23 = load ptr, ptr %22, align 8
  %24 = tail call noundef ptr %23(ptr noundef nonnull align 8 dereferenceable(28) %20)
  store ptr %24, ptr %14, align 8, !tbaa !29
  %25 = getelementptr inbounds nuw i8, ptr %13, i64 48
  %26 = load ptr, ptr %24, align 8, !tbaa !3
  %27 = getelementptr inbounds nuw i8, ptr %26, i64 144
  %28 = load ptr, ptr %27, align 8
  tail call void %28(ptr noundef nonnull align 8 dereferenceable(28) %24, ptr noundef nonnull align 8 dereferenceable(16) %25)
  %29 = getelementptr inbounds nuw i8, ptr %0, i64 48
  %30 = load ptr, ptr %29, align 8, !tbaa !35
  %31 = load ptr, ptr %25, align 8, !tbaa !35
  %.not = icmp eq ptr %30, %31
  br i1 %.not, label %68, label %32

32:                                               ; preds = %_ZN7datalog21check_relation_plugin3getEPNS_13relation_baseE.exit
  call void @llvm.lifetime.start.p0(i64 16, ptr nonnull %2) #24
  %33 = load ptr, ptr %4, align 8, !tbaa !39, !noalias !201
  call void @_ZNK7datalog21check_relation_plugin6groundERKNS_13relation_baseEP4expr(ptr dead_on_unwind nonnull writable sret(%class.obj_ref) align 8 %2, ptr noundef nonnull align 8 dereferenceable(56) %33, ptr noundef nonnull readonly align 8 dereferenceable(64) %0, ptr noundef %30)
  %34 = load ptr, ptr %2, align 8, !tbaa !35
  call void @llvm.lifetime.start.p0(i64 16, ptr nonnull %3) #24
  %35 = load ptr, ptr %25, align 8, !tbaa !35
  %36 = load ptr, ptr %4, align 8, !tbaa !39, !noalias !204
  invoke void @_ZNK7datalog21check_relation_plugin6groundERKNS_13relation_baseEP4expr(ptr dead_on_unwind nonnull writable sret(%class.obj_ref) align 8 %3, ptr noundef nonnull align 8 dereferenceable(56) %36, ptr noundef nonnull readonly align 8 dereferenceable(64) %0, ptr noundef %35)
          to label %_ZNK7datalog14check_relation6groundEP4expr.exit unwind label %63

_ZNK7datalog14check_relation6groundEP4expr.exit:  ; preds = %32
  %37 = load ptr, ptr %3, align 8, !tbaa !35
  %38 = load ptr, ptr %4, align 8, !tbaa !39
  invoke void @_ZN7datalog21check_relation_plugin11check_equivEPKcP4exprS4_(ptr noundef nonnull align 8 dereferenceable(56) %38, ptr noundef nonnull @.str.5, ptr noundef %34, ptr noundef %37)
          to label %_ZNK7datalog14check_relation11check_equivEPKcP4exprS4_.exit unwind label %65

_ZNK7datalog14check_relation11check_equivEPKcP4exprS4_.exit: ; preds = %_ZNK7datalog14check_relation6groundEP4expr.exit
  %39 = load ptr, ptr %3, align 8, !tbaa !35
  %.not.i.i = icmp eq ptr %39, null
  br i1 %.not.i.i, label %_ZN7obj_refI4expr11ast_managerED2Ev.exit, label %40

40:                                               ; preds = %_ZNK7datalog14check_relation11check_equivEPKcP4exprS4_.exit
  %41 = getelementptr inbounds nuw i8, ptr %3, i64 8
  %42 = load ptr, ptr %41, align 8, !tbaa !36
  %43 = getelementptr inbounds nuw i8, ptr %39, i64 8
  %44 = load i32, ptr %43, align 4, !tbaa !37
  %45 = add i32 %44, -1
  store i32 %45, ptr %43, align 4, !tbaa !37
  %46 = icmp eq i32 %45, 0
  br i1 %46, label %47, label %_ZN7obj_refI4expr11ast_managerED2Ev.exit

47:                                               ; preds = %40
  invoke void @_ZN11ast_manager11delete_nodeEP3ast(ptr noundef nonnull align 8 dereferenceable(976) %42, ptr noundef nonnull %39)
          to label %_ZN7obj_refI4expr11ast_managerED2Ev.exit unwind label %48

48:                                               ; preds = %47
  %49 = landingpad { ptr, i32 }
          catch ptr null
  %50 = extractvalue { ptr, i32 } %49, 0
  call void @__clang_call_terminate(ptr %50) #25
  unreachable

_ZN7obj_refI4expr11ast_managerED2Ev.exit:         ; preds = %_ZNK7datalog14check_relation11check_equivEPKcP4exprS4_.exit, %40, %47
  call void @llvm.lifetime.end.p0(i64 16, ptr nonnull %3) #24
  %51 = load ptr, ptr %2, align 8, !tbaa !35
  %.not.i.i11 = icmp eq ptr %51, null
  br i1 %.not.i.i11, label %_ZN7obj_refI4expr11ast_managerED2Ev.exit12, label %52

52:                                               ; preds = %_ZN7obj_refI4expr11ast_managerED2Ev.exit
  %53 = getelementptr inbounds nuw i8, ptr %2, i64 8
  %54 = load ptr, ptr %53, align 8, !tbaa !36
  %55 = getelementptr inbounds nuw i8, ptr %51, i64 8
  %56 = load i32, ptr %55, align 4, !tbaa !37
  %57 = add i32 %56, -1
  store i32 %57, ptr %55, align 4, !tbaa !37
  %58 = icmp eq i32 %57, 0
  br i1 %58, label %59, label %_ZN7obj_refI4expr11ast_managerED2Ev.exit12

59:                                               ; preds = %52
  invoke void @_ZN11ast_manager11delete_nodeEP3ast(ptr noundef nonnull align 8 dereferenceable(976) %54, ptr noundef nonnull %51)
          to label %_ZN7obj_refI4expr11ast_managerED2Ev.exit12 unwind label %60

60:                                               ; preds = %59
  %61 = landingpad { ptr, i32 }
          catch ptr null
  %62 = extractvalue { ptr, i32 } %61, 0
  call void @__clang_call_terminate(ptr %62) #25
  unreachable

_ZN7obj_refI4expr11ast_managerED2Ev.exit12:       ; preds = %_ZN7obj_refI4expr11ast_managerED2Ev.exit, %52, %59
  call void @llvm.lifetime.end.p0(i64 16, ptr nonnull %2) #24
  br label %68

63:                                               ; preds = %32
  %64 = landingpad { ptr, i32 }
          cleanup
  br label %67

65:                                               ; preds = %_ZNK7datalog14check_relation6groundEP4expr.exit
  %66 = landingpad { ptr, i32 }
          cleanup
  call void @_ZN7obj_refI4expr11ast_managerED2Ev(ptr noundef nonnull align 8 dereferenceable(16) %3) #24
  br label %67

67:                                               ; preds = %65, %63
  %.pn = phi { ptr, i32 } [ %66, %65 ], [ %64, %63 ]
  call void @llvm.lifetime.end.p0(i64 16, ptr nonnull %3) #24
  call void @_ZN7obj_refI4expr11ast_managerED2Ev(ptr noundef nonnull align 8 dereferenceable(16) %2) #24
  call void @llvm.lifetime.end.p0(i64 16, ptr nonnull %2) #24
  resume { ptr, i32 } %.pn

68:                                               ; preds = %_ZN7obj_refI4expr11ast_managerED2Ev.exit12, %_ZN7datalog21check_relation_plugin3getEPNS_13relation_baseE.exit
  ret ptr %13
}